target datalayout = "e-m:e-p270:32:32-p271:32:32-p272:64:64-i64:64-i128:128-f80:128-n8:16:32:64-S128"
target triple = "x86_64-pc-linux-gnu"

%"class.std::__cxx11::basic_string" = type { %"struct.std::__cxx11::basic_string<char>::_Alloc_hider", i64, %union.anon }
%"struct.std::__cxx11::basic_string<char>::_Alloc_hider" = type { ptr }
%union.anon = type { i64, [8 x i8] }
%"class.std::allocator.22" = type { i8 }

@__dso_handle = external hidden global i8
@_ZZN32pxrInternal_v0_24__pxrReserved__12_GLOBAL__N_129_UsdImagingNodeTypeInfoSource10_GetPrefixB5cxx11EvE6prefixB5cxx11 = internal global %"class.std::__cxx11::basic_string" zeroinitializer, align 8
@_ZGVZN32pxrInternal_v0_24__pxrReserved__12_GLOBAL__N_129_UsdImagingNodeTypeInfoSource10_GetPrefixB5cxx11EvE6prefixB5cxx11 = internal global i64 0, align 8
@.str.8 = private unnamed_addr constant [6 x i8] c"info:\00", align 1

; Function Attrs: mustprogress uwtable
define internal noundef nonnull align 8 dereferenceable(32) ptr @_ZN32pxrInternal_v0_24__pxrReserved__12_GLOBAL__N_129_UsdImagingNodeTypeInfoSource10_GetPrefixB5cxx11Ev() #0 align 2 personality ptr @__gxx_personality_v0 {
  %1 = alloca %"class.std::allocator.22", align 1
  %2 = alloca ptr, align 8
  %3 = alloca i32, align 4
  %4 = load atomic i8, ptr @_ZGVZN32pxrInternal_v0_24__pxrReserved__12_GLOBAL__N_129_UsdImagingNodeTypeInfoSource10_GetPrefixB5cxx11EvE6prefixB5cxx11 acquire, align 8
  %5 = icmp eq i8 %4, 0
  br i1 %5, label %6, label %12, !prof !19

6:                                                ; preds = %0
  %7 = call i32 @__cxa_guard_acquire(ptr @_ZGVZN32pxrInternal_v0_24__pxrReserved__12_GLOBAL__N_129_UsdImagingNodeTypeInfoSource10_GetPrefixB5cxx11EvE6prefixB5cxx11) #13
  %8 = icmp ne i32 %7, 0
  br i1 %8, label %9, label %12

9:                                                ; preds = %6
  call void @_ZNSaIcEC1Ev(ptr noundef nonnull align 1 dereferenceable(1) %1) #13
  invoke void @_ZNSt7__cxx1112basic_stringIcSt11char_traitsIcESaIcEEC2IS3_EEPKcRKS3_(ptr noundef nonnull align 8 dereferenceable(32) @_ZZN32pxrInternal_v0_24__pxrReserved__12_GLOBAL__N_129_UsdImagingNodeTypeInfoSource10_GetPrefixB5cxx11EvE6prefixB5cxx11, ptr noundef @.str.8, ptr noundef nonnull align 1 dereferenceable(1) %1)
          to label %10 unwind label %13

10:                                               ; preds = %9
  call void @_ZNSaIcED1Ev(ptr noundef nonnull align 1 dereferenceable(1) %1) #13
  %11 = call i32 @__cxa_atexit(ptr @_ZNSt7__cxx1112basic_stringIcSt11char_traitsIcESaIcEED1Ev, ptr @_ZZN32pxrInternal_v0_24__pxrReserved__12_GLOBAL__N_129_UsdImagingNodeTypeInfoSource10_GetPrefixB5cxx11EvE6prefixB5cxx11, ptr @__dso_handle) #13
  call void @__cxa_guard_release(ptr @_ZGVZN32pxrInternal_v0_24__pxrReserved__12_GLOBAL__N_129_UsdImagingNodeTypeInfoSource10_GetPrefixB5cxx11EvE6prefixB5cxx11) #13
  br label %12

12:                                               ; preds = %10, %6, %0
  ret ptr @_ZZN32pxrInternal_v0_24__pxrReserved__12_GLOBAL__N_129_UsdImagingNodeTypeInfoSource10_GetPrefixB5cxx11EvE6prefixB5cxx11

13:                                               ; preds = %9
  %14 = landingpad { ptr, i32 }
          cleanup
  %15 = extractvalue { ptr, i32 } %14, 0
  store ptr %15, ptr %2, align 8
  %16 = extractvalue { ptr, i32 } %14, 1
  store i32 %16, ptr %3, align 4
  call void @_ZNSaIcED1Ev(ptr noundef nonnull align 1 dereferenceable(1) %1) #13
  call void @__cxa_guard_abort(ptr @_ZGVZN32pxrInternal_v0_24__pxrReserved__12_GLOBAL__N_129_UsdImagingNodeTypeInfoSource10_GetPrefixB5cxx11EvE6prefixB5cxx11) #13
  br label %17

17:                                               ; preds = %13
  %18 = load ptr, ptr %2, align 8
  %19 = load i32, ptr %3, align 4
  %20 = insertvalue { ptr, i32 } poison, ptr %18, 0
  %21 = insertvalue { ptr, i32 } %20, i32 %19, 1
  resume { ptr, i32 } %21
}