; Function Attrs: mustprogress uwtable
define internal fastcc void @_ZN32pxrInternal_v0_24__pxrReserved__12_GLOBAL__N_129_UsdImagingNodeTypeInfoSource10_GetPrefixB5cxx11Ev() unnamed_addr #5 align 2 personality ptr @__gxx_personality_v0 {
  %1 = alloca %"class.std::allocator.22", align 1
  %2 = load atomic i8, ptr @_ZGVZN32pxrInternal_v0_24__pxrReserved__12_GLOBAL__N_129_UsdImagingNodeTypeInfoSource10_GetPrefixB5cxx11EvE6prefixB5cxx11 acquire, align 8
  %3 = icmp eq i8 %2, 0
  br i1 %3, label %4, label %9, !prof !141

4:                                                ; preds = %0
  %5 = tail call i32 @__cxa_guard_acquire(ptr nonnull @_ZGVZN32pxrInternal_v0_24__pxrReserved__12_GLOBAL__N_129_UsdImagingNodeTypeInfoSource10_GetPrefixB5cxx11EvE6prefixB5cxx11) #24
  %.not = icmp eq i32 %5, 0
  br i1 %.not, label %9, label %6

6:                                                ; preds = %4
  call void @_ZNSaIcEC1Ev(ptr noundef nonnull align 1 dereferenceable(1) %1) #24
  invoke void @_ZNSt7__cxx1112basic_stringIcSt11char_traitsIcESaIcEEC2IS3_EEPKcRKS3_(ptr noundef nonnull align 8 dereferenceable(32) @_ZZN32pxrInternal_v0_24__pxrReserved__12_GLOBAL__N_129_UsdImagingNodeTypeInfoSource10_GetPrefixB5cxx11EvE6prefixB5cxx11, ptr noundef nonnull @.str.8, ptr noundef nonnull align 1 dereferenceable(1) %1)
          to label %7 unwind label %10

7:                                                ; preds = %6
  call void @_ZNSaIcED1Ev(ptr noundef nonnull align 1 dereferenceable(1) %1) #24
  %8 = call i32 @__cxa_atexit(ptr nonnull @_ZNSt7__cxx1112basic_stringIcSt11char_traitsIcESaIcEED1Ev, ptr nonnull @_ZZN32pxrInternal_v0_24__pxrReserved__12_GLOBAL__N_129_UsdImagingNodeTypeInfoSource10_GetPrefixB5cxx11EvE6prefixB5cxx11, ptr nonnull @__dso_handle) #24
  call void @__cxa_guard_release(ptr nonnull @_ZGVZN32pxrInternal_v0_24__pxrReserved__12_GLOBAL__N_129_UsdImagingNodeTypeInfoSource10_GetPrefixB5cxx11EvE6prefixB5cxx11) #24
  br label %9

9:                                                ; preds = %7, %4, %0
  ret void

10:                                               ; preds = %6
  %11 = landingpad { ptr, i32 }
          cleanup
  call void @_ZNSaIcED1Ev(ptr noundef nonnull align 1 dereferenceable(1) %1) #24
  call void @__cxa_guard_abort(ptr nonnull @_ZGVZN32pxrInternal_v0_24__pxrReserved__12_GLOBAL__N_129_UsdImagingNodeTypeInfoSource10_GetPrefixB5cxx11EvE6prefixB5cxx11) #24
  resume { ptr, i32 } %11
}